target datalayout = "e-m:e-p270:32:32-p271:32:32-p272:64:64-i64:64-i128:128-f80:128-n8:16:32:64-S128"
target triple = "x86_64-pc-linux-gnu"

%struct.ScanKeyData = type { i32, i16, i16, i32, i32, %struct.FmgrInfo, i64 }
%struct.FmgrInfo = type { ptr, i32, i16, i8, i8, i8, ptr, ptr, ptr }
%struct.RelationData = type { %struct.RelFileLocator, ptr, i32, i32, i8, i8, i8, i8, i8, i32, i32, i32, i32, ptr, ptr, i32, %struct.LockInfoData, ptr, ptr, ptr, ptr, ptr, i8, ptr, ptr, ptr, ptr, ptr, ptr, i32, ptr, i8, ptr, ptr, i32, i8, i32, ptr, i8, ptr, ptr, ptr, ptr, ptr, ptr, ptr, i32, ptr, ptr, ptr, ptr, ptr, ptr, ptr, ptr, ptr, ptr, ptr, ptr, ptr, ptr, ptr, ptr, ptr, ptr, ptr, i32, i8, ptr }
%struct.RelFileLocator = type { i32, i32, i32 }
%struct.LockInfoData = type { %struct.LockRelId }
%struct.LockRelId = type { i32, i32 }
%struct.HeapTupleData = type { i32, %struct.ItemPointerData, i32, ptr }
%struct.ItemPointerData = type { %struct.BlockIdData, i16 }
%struct.BlockIdData = type { i16, i16 }
%struct.TableScanDescData = type { ptr, ptr, i32, ptr, %union.anon.1, i32, ptr }
%union.anon.1 = type { %struct.TBMIterator }
%struct.TBMIterator = type { i8, %union.anon.2 }
%union.anon.2 = type { ptr }
%struct.TableAmRoutine = type { i32, ptr, ptr, ptr, ptr, ptr, ptr, ptr, ptr, ptr, ptr, ptr, ptr, ptr, ptr, ptr, ptr, ptr, ptr, ptr, ptr, ptr, ptr, ptr, ptr, ptr, ptr, ptr, ptr, ptr, ptr, ptr, ptr, ptr, ptr, ptr, ptr, ptr, ptr, ptr, ptr, ptr, ptr, ptr, ptr, ptr }

; Function Attrs: inlinehint nounwind uwtable
define internal void @table_endscan(ptr noundef %0) #3 {
  %2 = alloca ptr, align 8
  store ptr %0, ptr %2, align 8
  %3 = load ptr, ptr %2, align 8
  %4 = getelementptr inbounds nuw %struct.TableScanDescData, ptr %3, i32 0, i32 0
  %5 = load ptr, ptr %4, align 8
  %6 = getelementptr inbounds nuw %struct.RelationData, ptr %5, i32 0, i32 47
  %7 = load ptr, ptr %6, align 8
  %8 = getelementptr inbounds nuw %struct.TableAmRoutine, ptr %7, i32 0, i32 3
  %9 = load ptr, ptr %8, align 8
  %10 = load ptr, ptr %2, align 8
  call void %9(ptr noundef %10)
  ret void
}

; Function Attrs: inlinehint nounwind uwtable
define internal i64 @ObjectIdGetDatum(i32 noundef %0) #3 {
  %2 = alloca i32, align 4
  store i32 %0, ptr %2, align 4
  %3 = load i32, ptr %2, align 4
  %4 = zext i32 %3 to i64
  ret i64 %4
}

; Function Attrs: nounwind uwtable
define dso_local void @DropSetting(i32 noundef %0, i32 noundef %1) #0 {
  %3 = alloca i32, align 4
  %4 = alloca i32, align 4
  %5 = alloca ptr, align 8
  %6 = alloca ptr, align 8
  %7 = alloca [2 x %struct.ScanKeyData], align 16
  %8 = alloca ptr, align 8
  %9 = alloca i32, align 4
  store i32 %0, ptr %3, align 4
  store i32 %1, ptr %4, align 4
  call void @llvm.lifetime.start.p0(i64 8, ptr %5) #6
  call void @llvm.lifetime.start.p0(i64 8, ptr %6) #6
  call void @llvm.lifetime.start.p0(i64 144, ptr %7) #6
  call void @llvm.lifetime.start.p0(i64 8, ptr %8) #6
  call void @llvm.lifetime.start.p0(i64 4, ptr %9) #6
  store i32 0, ptr %9, align 4
  %10 = call ptr @table_open(i32 noundef 2964, i32 noundef 3)
  store ptr %10, ptr %5, align 8
  %11 = load i32, ptr %3, align 4
  %12 = icmp ne i32 %11, 0
  br i1 %12, label %13, label %21

13:                                               ; preds = %2
  %14 = load i32, ptr %9, align 4
  %15 = sext i32 %14 to i64
  %16 = getelementptr inbounds [2 x %struct.ScanKeyData], ptr %7, i64 0, i64 %15
  %17 = load i32, ptr %3, align 4
  %18 = call i64 @ObjectIdGetDatum(i32 noundef %17)
  call void @ScanKeyInit(ptr noundef %16, i16 noundef signext 1, i16 noundef zeroext 3, i32 noundef 184, i64 noundef %18)
  %19 = load i32, ptr %9, align 4
  %20 = add i32 %19, 1
  store i32 %20, ptr %9, align 4
  br label %21

21:                                               ; preds = %13, %2
  %22 = load i32, ptr %4, align 4
  %23 = icmp ne i32 %22, 0
  br i1 %23, label %24, label %32

24:                                               ; preds = %21
  %25 = load i32, ptr %9, align 4
  %26 = sext i32 %25 to i64
  %27 = getelementptr inbounds [2 x %struct.ScanKeyData], ptr %7, i64 0, i64 %26
  %28 = load i32, ptr %4, align 4
  %29 = call i64 @ObjectIdGetDatum(i32 noundef %28)
  call void @ScanKeyInit(ptr noundef %27, i16 noundef signext 2, i16 noundef zeroext 3, i32 noundef 184, i64 noundef %29)
  %30 = load i32, ptr %9, align 4
  %31 = add i32 %30, 1
  store i32 %31, ptr %9, align 4
  br label %32

32:                                               ; preds = %24, %21
  %33 = load ptr, ptr %5, align 8
  %34 = load i32, ptr %9, align 4
  %35 = getelementptr inbounds [2 x %struct.ScanKeyData], ptr %7, i64 0, i64 0
  %36 = call ptr @table_beginscan_catalog(ptr noundef %33, i32 noundef %34, ptr noundef %35)
  store ptr %36, ptr %6, align 8
  br label %37

37:                                               ; preds = %41, %32
  %38 = load ptr, ptr %6, align 8
  %39 = call ptr @heap_getnext(ptr noundef %38, i32 noundef 1)
  store ptr %39, ptr %8, align 8
  %40 = icmp ne ptr %39, null
  br i1 %40, label %41, label %45

41:                                               ; preds = %37
  %42 = load ptr, ptr %5, align 8
  %43 = load ptr, ptr %8, align 8
  %44 = getelementptr inbounds nuw %struct.HeapTupleData, ptr %43, i32 0, i32 1
  call void @CatalogTupleDelete(ptr noundef %42, ptr noundef %44)
  br label %37, !llvm.loop !6

45:                                               ; preds = %37
  %46 = load ptr, ptr %6, align 8
  call void @table_endscan(ptr noundef %46)
  %47 = load ptr, ptr %5, align 8
  call void @table_close(ptr noundef %47, i32 noundef 3)
  call void @llvm.lifetime.end.p0(i64 4, ptr %9) #6
  call void @llvm.lifetime.end.p0(i64 8, ptr %8) #6
  call void @llvm.lifetime.end.p0(i64 144, ptr %7) #6
  call void @llvm.lifetime.end.p0(i64 8, ptr %6) #6
  call void @llvm.lifetime.end.p0(i64 8, ptr %5) #6
  ret void
}