; Function Attrs: nounwind uwtable
define dso_local void @DropSetting(i32 noundef %0, i32 noundef %1) local_unnamed_addr #0 {
  %3 = alloca [2 x %struct.ScanKeyData], align 16
  call void @llvm.lifetime.start.p0(i64 144, ptr nonnull %3) #7
  %4 = tail call ptr @table_open(i32 noundef 2964, i32 noundef 3) #7
  %.not = icmp eq i32 %0, 0
  br i1 %.not, label %7, label %5

5:                                                ; preds = %2
  %6 = zext i32 %0 to i64
  call void @ScanKeyInit(ptr noundef nonnull %3, i16 noundef signext 1, i16 noundef zeroext 3, i32 noundef 184, i64 noundef %6) #7
  br label %7

7:                                                ; preds = %5, %2
  %.0 = phi i32 [ 1, %5 ], [ 0, %2 ]
  %.not17 = icmp eq i32 %1, 0
  br i1 %.not17, label %13, label %8

8:                                                ; preds = %7
  %9 = zext nneg i32 %.0 to i64
  %10 = getelementptr inbounds nuw [2 x %struct.ScanKeyData], ptr %3, i64 0, i64 %9
  %11 = zext i32 %1 to i64
  call void @ScanKeyInit(ptr noundef nonnull %10, i16 noundef signext 2, i16 noundef zeroext 3, i32 noundef 184, i64 noundef %11) #7
  %12 = add nuw nsw i32 %.0, 1
  br label %13

13:                                               ; preds = %8, %7
  %.1 = phi i32 [ %12, %8 ], [ %.0, %7 ]
  %14 = call ptr @table_beginscan_catalog(ptr noundef %4, i32 noundef %.1, ptr noundef nonnull %3) #7
  %15 = call ptr @heap_getnext(ptr noundef %14, i32 noundef 1) #7
  %.not1819 = icmp eq ptr %15, null
  br i1 %.not1819, label %._crit_edge, label %.lr.ph

.lr.ph:                                           ; preds = %13, %.lr.ph
  %16 = phi ptr [ %18, %.lr.ph ], [ %15, %13 ]
  %17 = getelementptr inbounds nuw i8, ptr %16, i64 4
  call void @CatalogTupleDelete(ptr noundef %4, ptr noundef nonnull %17) #7
  %18 = call ptr @heap_getnext(ptr noundef %14, i32 noundef 1) #7
  %.not18 = icmp eq ptr %18, null
  br i1 %.not18, label %._crit_edge, label %.lr.ph, !llvm.loop !6

._crit_edge:                                      ; preds = %.lr.ph, %13
  %19 = load ptr, ptr %14, align 8
  %20 = getelementptr inbounds nuw i8, ptr %19, i64 320
  %21 = load ptr, ptr %20, align 8
  %22 = getelementptr inbounds nuw i8, ptr %21, i64 24
  %23 = load ptr, ptr %22, align 8
  call void %23(ptr noundef nonnull %14) #7
  call void @table_close(ptr noundef %4, i32 noundef 3) #7
  call void @llvm.lifetime.end.p0(i64 144, ptr nonnull %3) #7
  ret void
}